target datalayout = "e-m:e-p270:32:32-p271:32:32-p272:64:64-i64:64-i128:128-f80:128-n8:16:32:64-S128"
target triple = "x86_64-unknown-linux-gnu"

%"class.std::__cxx11::basic_string" = type { %"struct.std::__cxx11::basic_string<char>::_Alloc_hider", i64, %union.anon }
%"struct.std::__cxx11::basic_string<char>::_Alloc_hider" = type { ptr }
%union.anon = type { i64, [8 x i8] }
%"class.testing::internal::MutexBase" = type { %union.pthread_mutex_t, i8, i64 }
%union.pthread_mutex_t = type { %struct.__pthread_mutex_s }
%struct.__pthread_mutex_s = type { i32, i32, i32, i32, i32, i16, i16, %struct.__pthread_internal_list }
%struct.__pthread_internal_list = type { ptr, ptr }
%"class.testing::(anonymous namespace)::MockObjectRegistry" = type { %"class.std::map" }
%"class.std::map" = type { %"class.std::_Rb_tree.41" }
%"class.std::_Rb_tree.41" = type { %"struct.std::_Rb_tree<const void *, std::pair<const void *const, testing::(anonymous namespace)::MockObjectState>, std::_Select1st<std::pair<const void *const, testing::(anonymous namespace)::MockObjectState>>, std::less<const void *>>::_Rb_tree_impl" }
%"struct.std::_Rb_tree<const void *, std::pair<const void *const, testing::(anonymous namespace)::MockObjectState>, std::_Select1st<std::pair<const void *const, testing::(anonymous namespace)::MockObjectState>>, std::less<const void *>>::_Rb_tree_impl" = type { %"struct.std::_Rb_tree_key_compare.45", %"struct.std::_Rb_tree_header" }
%"struct.std::_Rb_tree_key_compare.45" = type { %"struct.std::less" }
%"struct.std::less" = type { i8 }
%"struct.std::_Rb_tree_header" = type { %"struct.std::_Rb_tree_node_base", i64 }
%"struct.std::_Rb_tree_node_base" = type { i32, ptr, ptr, ptr }
%"class.testing::internal::GTestMutexLock" = type { ptr }
%"struct.testing::(anonymous namespace)::MockObjectState" = type { ptr, i32, %"class.std::__cxx11::basic_string", %"class.std::__cxx11::basic_string", i8, %"class.std::set.51" }
%"class.std::set.51" = type { %"class.std::_Rb_tree.52" }
%"class.std::_Rb_tree.52" = type { %"struct.std::_Rb_tree<testing::internal::UntypedFunctionMockerBase *, testing::internal::UntypedFunctionMockerBase *, std::_Identity<testing::internal::UntypedFunctionMockerBase *>, std::less<testing::internal::UntypedFunctionMockerBase *>>::_Rb_tree_impl" }
%"struct.std::_Rb_tree<testing::internal::UntypedFunctionMockerBase *, testing::internal::UntypedFunctionMockerBase *, std::_Identity<testing::internal::UntypedFunctionMockerBase *>, std::less<testing::internal::UntypedFunctionMockerBase *>>::_Rb_tree_impl" = type { %"struct.std::_Rb_tree_key_compare.56", %"struct.std::_Rb_tree_header" }
%"struct.std::_Rb_tree_key_compare.56" = type { %"struct.std::less.57" }
%"struct.std::less.57" = type { i8 }

@_ZN7testing8internal13g_gmock_mutexE = global %"class.testing::internal::MutexBase" zeroinitializer, align 8
@_ZN7testing12_GLOBAL__N_122g_mock_object_registryE = internal global %"class.testing::(anonymous namespace)::MockObjectRegistry" zeroinitializer, align 8

; Function Attrs: mustprogress nounwind uwtable
define linkonce_odr hidden void @_ZN7testing8internal14GTestMutexLockD2Ev(ptr noundef nonnull align 8 dereferenceable(8) %this) unnamed_addr #7 comdat align 2 personality ptr @__gxx_personality_v0 {
entry:
  %this.addr = alloca ptr, align 8
  store ptr %this, ptr %this.addr, align 8
  %this1 = load ptr, ptr %this.addr, align 8
  %mutex_ = getelementptr inbounds %"class.testing::internal::GTestMutexLock", ptr %this1, i32 0, i32 0
  %0 = load ptr, ptr %mutex_, align 8
  invoke void @_ZN7testing8internal9MutexBase6UnlockEv(ptr noundef nonnull align 8 dereferenceable(56) %0)
          to label %invoke.cont unwind label %terminate.lpad

invoke.cont:                                      ; preds = %entry
  ret void

terminate.lpad:                                   ; preds = %entry
  %1 = landingpad { ptr, i32 }
          catch ptr null
  %2 = extractvalue { ptr, i32 } %1, 0
  call void @__clang_call_terminate(ptr %2) #19
  unreachable
}

; Function Attrs: mustprogress nounwind uwtable
define internal noundef nonnull align 8 dereferenceable(48) ptr @_ZN7testing12_GLOBAL__N_118MockObjectRegistry6statesEv(ptr noundef nonnull align 8 dereferenceable(48) %this) #7 align 2 {
entry:
  %this.addr = alloca ptr, align 8
  store ptr %this, ptr %this.addr, align 8
  %this1 = load ptr, ptr %this.addr, align 8
  %states_ = getelementptr inbounds %"class.testing::(anonymous namespace)::MockObjectRegistry", ptr %this1, i32 0, i32 0
  ret ptr %states_
}

; Function Attrs: mustprogress uwtable
define linkonce_odr hidden void @_ZN7testing8internal14GTestMutexLockC2EPNS0_9MutexBaseE(ptr noundef nonnull align 8 dereferenceable(8) %this, ptr noundef %mutex) unnamed_addr #4 comdat align 2 {
entry:
  %this.addr = alloca ptr, align 8
  %mutex.addr = alloca ptr, align 8
  store ptr %this, ptr %this.addr, align 8
  store ptr %mutex, ptr %mutex.addr, align 8
  %this1 = load ptr, ptr %this.addr, align 8
  %mutex_ = getelementptr inbounds %"class.testing::internal::GTestMutexLock", ptr %this1, i32 0, i32 0
  %0 = load ptr, ptr %mutex.addr, align 8
  store ptr %0, ptr %mutex_, align 8
  %mutex_2 = getelementptr inbounds %"class.testing::internal::GTestMutexLock", ptr %this1, i32 0, i32 0
  %1 = load ptr, ptr %mutex_2, align 8
  call void @_ZN7testing8internal9MutexBase4LockEv(ptr noundef nonnull align 8 dereferenceable(56) %1)
  ret void
}

; Function Attrs: mustprogress uwtable
define void @_ZN7testing4Mock9AllowLeakEPKv(ptr noundef %mock_obj) #4 align 2 personality ptr @__gxx_personality_v0 {
entry:
  %mock_obj.addr = alloca ptr, align 8
  %l = alloca %"class.testing::internal::GTestMutexLock", align 8
  %exn.slot = alloca ptr, align 8
  %ehselector.slot = alloca i32, align 4
  store ptr %mock_obj, ptr %mock_obj.addr, align 8
  call void @_ZN7testing8internal14GTestMutexLockC2EPNS0_9MutexBaseE(ptr noundef nonnull align 8 dereferenceable(8) %l, ptr noundef @_ZN7testing8internal13g_gmock_mutexE)
  %call = invoke noundef nonnull align 8 dereferenceable(48) ptr @_ZN7testing12_GLOBAL__N_118MockObjectRegistry6statesEv(ptr noundef nonnull align 8 dereferenceable(48) @_ZN7testing12_GLOBAL__N_122g_mock_object_registryE)
          to label %invoke.cont unwind label %lpad

invoke.cont:                                      ; preds = %entry
  %call2 = invoke noundef nonnull align 8 dereferenceable(136) ptr @_ZNSt3mapIPKvN7testing12_GLOBAL__N_115MockObjectStateESt4lessIS1_ESaISt4pairIKS1_S4_EEEixERS8_(ptr noundef nonnull align 8 dereferenceable(48) %call, ptr noundef nonnull align 8 dereferenceable(8) %mock_obj.addr)
          to label %invoke.cont1 unwind label %lpad

invoke.cont1:                                     ; preds = %invoke.cont
  %leakable = getelementptr inbounds %"struct.testing::(anonymous namespace)::MockObjectState", ptr %call2, i32 0, i32 4
  store i8 1, ptr %leakable, align 8
  call void @_ZN7testing8internal14GTestMutexLockD2Ev(ptr noundef nonnull align 8 dereferenceable(8) %l) #3
  ret void

lpad:                                             ; preds = %invoke.cont, %entry
  %0 = landingpad { ptr, i32 }
          cleanup
  %1 = extractvalue { ptr, i32 } %0, 0
  store ptr %1, ptr %exn.slot, align 8
  %2 = extractvalue { ptr, i32 } %0, 1
  store i32 %2, ptr %ehselector.slot, align 4
  call void @_ZN7testing8internal14GTestMutexLockD2Ev(ptr noundef nonnull align 8 dereferenceable(8) %l) #3
  br label %eh.resume

eh.resume:                                        ; preds = %lpad
  %exn = load ptr, ptr %exn.slot, align 8
  %sel = load i32, ptr %ehselector.slot, align 4
  %lpad.val = insertvalue { ptr, i32 } poison, ptr %exn, 0
  %lpad.val3 = insertvalue { ptr, i32 } %lpad.val, i32 %sel, 1
  resume { ptr, i32 } %lpad.val3
}